; Function Attrs: mustprogress nounwind uwtable
define hidden noundef i64 @_ZNK9ZUnmapper14queue_capacityEv(ptr nocapture noundef nonnull readonly align 8 dereferenceable(1050) %0) local_unnamed_addr #0 align 2 {
  %2 = getelementptr inbounds i8, ptr %0, i64 920
  %3 = load ptr, ptr %2, align 8
  %4 = tail call noundef i64 @_ZNK14ZPageAllocator12max_capacityEv(ptr noundef nonnull align 8 dereferenceable(609) %3) #9
  %5 = uitofp i64 %4 to double
  %6 = load double, ptr @ZAsyncUnmappingLimit, align 8
  %7 = fmul double %6, %5
  %8 = fdiv double %7, 1.000000e+02
  %9 = fptoui double %8 to i64
  %10 = add i64 %9, 2097151
  %11 = and i64 %10, -2097152
  ret i64 %11
}